Certificate:
    Data:
        Version: 3 (0x2)
        Serial Number: 3 (0x3)
    Signature Algorithm: sha1WithRSAEncryption
        Issuer: O=My Company, OU=My Unit, L=My Town, ST=My State, C=US, CN=Sample CA
        Validity
            Not Before: Jan 24 01:17:16 2017 GMT
            Not After : Jan 22 01:17:16 2027 GMT
        Subject: C=US, ST=My State, O=My Company, OU=quickstart-346960:server1, CN=localhost
        Subject Public Key Info:
            Public Key Algorithm: rsaEncryption
                Public-Key: (4096 bit)
                Modulus:
                    00:d8:e4:21:5c:81:4b:52:85:e8:69:49:fa:f3:71:
                    40:79:ec:a3:d5:7f:18:7b:a4:3a:7c:f9:af:69:3f:
                    0b:75:13:8f:11:49:81:73:51:2a:a6:fa:d3:6f:d9:
                    39:d1:33:dc:db:e6:56:a6:ca:c7:67:b2:97:90:51:
                    8f:13:ad:4c:6a:95:77:c7:1c:e3:c6:aa:9e:81:e8:
                    d1:2c:bb:47:50:1d:9f:3c:11:af:ba:fa:bd:19:86:
                    44:46:a8:1e:6c:15:14:51:cf:8a:e6:c7:a3:a1:c2:
                    0d:a3:3d:1a:63:fa:1a:88:55:f1:c0:b6:5a:50:dd:
                    e4:c7:fe:fb:63:0f:12:e6:e5:42:5f:f4:e2:ff:ff:
                    fb:0d:1a:4d:d2:a7:ac:10:60:7f:69:9b:63:97:17:
                    57:51:e5:9a:0d:58:c0:5f:d9:f4:6c:4f:b2:0c:1e:
                    92:4a:14:c9:e0:f5:0c:37:f8:53:82:61:36:68:aa:
                    52:7a:d4:f2:e8:81:f1:6b:17:47:c2:aa:97:9b:aa:
                    40:51:68:2a:8a:f3:7b:42:df:8f:26:1e:6d:c8:2b:
                    f2:ff:03:e0:50:62:7a:c8:9f:8a:81:39:b8:23:b9:
                    15:e3:da:e3:95:2a:9d:25:cf:0b:fb:f9:ea:43:f1:
                    bb:68:01:8b:7c:99:ff:c4:55:91:03:37:a6:78:1f:
                    33:02:3e:d6:1f:a8:44:b0:da:86:cb:d3:3d:22:31:
                    39:cc:d4:4c:a5:88:83:a6:18:5f:65:f8:a7:14:18:
                    ee:21:7a:c0:17:a6:10:6f:4f:57:7a:09:80:c5:55:
                    cd:48:e3:79:b5:d6:c0:be:28:0b:3b:54:72:75:a2:
                    aa:56:8d:c3:f8:23:63:b0:8b:ad:69:ce:a1:88:0d:
                    8d:4b:8b:54:46:e3:ac:25:42:33:0e:f4:a5:67:b2:
                    f5:d0:01:9a:7f:18:ec:2e:f9:46:f6:e9:df:6d:a7:
                    c9:ee:29:4d:31:c3:b5:7c:c0:c1:61:64:a5:49:a7:
                    6c:d2:b8:5f:df:ac:07:3a:ed:c9:91:c7:c2:86:90:
                    8f:41:14:88:6b:53:07:b3:04:2e:cd:64:a5:d8:02:
                    f1:b9:a4:1b:9f:a6:ec:17:71:09:9a:90:28:6b:3d:
                    ca:c8:bf:50:ab:57:75:8a:e0:88:48:55:7e:f9:a1:
                    fe:72:b1:34:e7:b9:62:3b:2c:d6:1b:8e:9b:c3:d2:
                    ee:43:cd:46:c8:a0:ad:7b:ce:88:ce:76:f9:f6:dd:
                    20:a4:a1:7a:a0:b5:ee:2a:63:0d:f2:de:02:7e:7a:
                    58:74:8b:b7:34:a5:9d:14:dd:e0:6b:69:3c:cc:f3:
                    fc:76:0d:1d:07:4a:75:8d:b6:36:18:a8:e4:b1:f7:
                    d7:50:0f
                Exponent: 65537 (0x10001)
        X509v3 extensions:
            X509v3 Basic Constraints: 
                CA:FALSE
            X509v3 Subject Key Identifier: 
                59:A2:0C:BC:52:B4:73:8D:C7:73:63:E4:4E:91:36:47:F5:F8:85:BC
            X509v3 Extended Key Usage: 
                TLS Web Server Authentication, TLS Web Client Authentication
    Signature Algorithm: sha1WithRSAEncryption
         0d:1b:dc:9c:8a:e3:00:d4:f4:84:73:b9:6c:26:2b:e1:fb:bd:
         71:83:d8:c8:45:f0:be:74:b9:a0:51:bb:06:58:b3:e7:84:fb:
         d9:dc:54:ec:a5:03:48:8b:83:1c:e1:bf:ac:69:b6:62:15:8a:
         47:d2:e3:be:a4:ab:5a:69:77:7e:3d:ad:80:e4:da:8d:99:3f:
         37:ef:59:8e:9c:93:f2:3f:e1:e8:c8:2f:39:bc:42:b1:80:14:
         15:01:2f:96:be:16:db:31:a9:2a:36:08:23:3b:dc:7d:32:5e:
         c4:11:58:d3:17:9f:2e:9a:92:df:93:38:03:56:31:be:da:6e:
         43:a2:d5:53:c5:80:68:4d:5f:27:35:9b:97:6c:24:61:02:45:
         bc:51:46:f2:4c:63:e7:9c:92:3d:13:e6:d4:43:04:c6:b0:57:
         b6:1d:eb:f7:29:39:b7:81:6a:f8:13:c0:2c:67:a9:30:1f:12:
         fc:c3:27:6b:7f:18:3d:7a:5e:b1:56:e0:20:da:0d:d2:3d:7e:
         13:f1:ea:3a:a8:8f:a9:41:78:38:16:fb:56:ad:6e:d8:15:64:
         27:03:31:9f:d4:ef:66:0d:2c:48:e4:aa:39:3c:44:59:eb:d9:
         89:7f:25:95:27:01:8e:8b:a1:86:95:7e:73:3d:1d:5e:b7:a5:
         69:a9:3e:a4:1b:94:bf:19:45:97:2e:b1:35:3c:d2:ad:80:15:
         81:05:f0:ad:e6:d6:76:7d:9e:21:0c:8b:ea:50:94:74:97:24:
         56:c4:01:d3:17:69:84:04:91:f9:f9:99:f2:c2:e3:08:e2:de:
         f5:16:50:b7:f0:ff:a5:ce:8a:0d:52:03:6b:c7:71:eb:2e:5a:
         a6:5b:be:9d:2a:f0:9c:04:48:28:18:64:2f:ec:b8:d8:38:fe:
         2a:64:00:78:a9:ea:4d:e9:c6:2e:c4:14:d7:0d:df:1c:7b:ca:
         59:8f:81:36:6a:ef:a7:ab:80:3b:f3:30:09:17:d7:4f:56:11:
         77:3d:e2:bb:33:68:2d:fe:fa:39:3a:b1:99:7c:0b:36:bd:6f:
         e1:d6:1f:c9:1b:c5:06:4c:64:38:d0:10:bb:58:21:ef:eb:c8:
         a9:9e:4b:e7:e7:91:e5:75:fd:db:dd:f6:f3:0d:03:87:be:49:
         61:79:41:ef:17:bb:13:e5:73:b2:2a:89:c4:03:13:cc:66:13:
         b9:2a:6f:0e:3d:0a:44:35:7d:c3:ef:2b:e2:a5:48:e2:cb:84:
         ca:e9:2b:40:4e:43:a7:23:b6:a7:5c:12:6b:2a:69:1e:fa:80:
         21:6a:87:35:d7:34:55:59:30:5a:2a:8c:c0:95:1c:ec:39:43:
         35:a7:eb:2b:f6:a7:d5:47
-----BEGIN CERTIFICATE-----
MIIFoDCCA4igAwIBAgIBAzANBgkqhkiG9w0BAQUFADBtMRMwEQYDVQQKEwpNeSBD
b21wYW55MRAwDgYDVQQLEwdNeSBVbml0MRAwDgYDVQQHEwdNeSBUb3duMREwDwYD
VQQIEwhNeSBTdGF0ZTELMAkGA1UEBhMCVVMxEjAQBgNVBAMTCVNhbXBsZSBDQTAe
Fw0xNzAxMjQwMTE3MTZaFw0yNzAxMjIwMTE3MTZaMG0xCzAJBgNVBAYTAlVTMREw
DwYDVQQIEwhNeSBTdGF0ZTETMBEGA1UEChMKTXkgQ29tcGFueTEiMCAGA1UECxMZ
cXVpY2tzdGFydC0zNDY5NjA6c2VydmVyMTESMBAGA1UEAxMJbG9jYWxob3N0MIIC
IjANBgkqhkiG9w0BAQEFAAOCAg8AMIICCgKCAgEA2OQhXIFLUoXoaUn683FAeeyj
1X8Ye6Q6fPmvaT8LdROPEUmBc1EqpvrTb9k50TPc2+ZWpsrHZ7KXkFGPE61MapV3
xxzjxqqegejRLLtHUB2fPBGvuvq9GYZERqgebBUUUc+K5sejocINoz0aY/oaiFXx
wLZaUN3kx/77Yw8S5uVCX/Ti///7DRpN0qesEGB/aZtjlxdXUeWaDVjAX9n0bE+y
DB6SShTJ4PUMN/hTgmE2aKpSetTy6IHxaxdHwqqXm6pAUWgqivN7Qt+PJh5tyCvy
/wPgUGJ6yJ+KgTm4I7kV49rjlSqdJc8L+/nqQ/G7aAGLfJn/xFWRAzemeB8zAj7W
H6hEsNqGy9M9IjE5zNRMpYiDphhfZfinFBjuIXrAF6YQb09XegmAxVXNSON5tdbA
vigLO1RydaKqVo3D+CNjsIutac6hiA2NS4tURuOsJUIzDvSlZ7L10AGafxjsLvlG
9unfbafJ7ilNMcO1fMDBYWSlSads0rhf36wHOu3JkcfChpCPQRSIa1MHswQuzWSl
2ALxuaQbn6bsF3EJmpAoaz3KyL9Qq1d1iuCISFV++aH+crE057liOyzWG46bw9Lu
Q81GyKCte86Iznb59t0gpKF6oLXuKmMN8t4CfnpYdIu3NKWdFN3ga2k8zPP8dg0d
B0p1jbY2GKjksffXUA8CAwEAAaNLMEkwCQYDVR0TBAIwADAdBgNVHQ4EFgQUWaIM
vFK0c43Hc2PkTpE2R/X4hbwwHQYDVR0lBBYwFAYIKwYBBQUHAwEGCCsGAQUFBwMC
MA0GCSqGSIb3DQEBBQUAA4ICAQANG9yciuMA1PSEc7lsJivh+71xg9jIRfC+dLmg
UbsGWLPnhPvZ3FTspQNIi4Mc4b+sabZiFYpH0uO+pKtaaXd+Pa2A5NqNmT8371mO
nJPyP+HoyC85vEKxgBQVAS+WvhbbMakqNggjO9x9Ml7EEVjTF58umpLfkzgDVjG+
2m5DotVTxYBoTV8nNZuXbCRhAkW8UUbyTGPnnJI9E+bUQwTGsFe2Hev3KTm3gWr4
E8AsZ6kwHxL8wydrfxg9el6xVuAg2g3SPX4T8eo6qI+pQXg4FvtWrW7YFWQnAzGf
1O9mDSxI5Ko5PERZ69mJfyWVJwGOi6GGlX5zPR1et6VpqT6kG5S/GUWXLrE1PNKt
gBWBBfCt5tZ2fZ4hDIvqUJR0lyRWxAHTF2mEBJH5+ZnywuMI4t71FlC38P+lzooN
UgNrx3HrLlqmW76dKvCcBEgoGGQv7LjYOP4qZAB4qepN6cYuxBTXDd8ce8pZj4E2
au+nq4A78zAJF9dPVhF3PeK7M2gt/vo5OrGZfAs2vW/h1h/JG8UGTGQ40BC7WCHv
68ipnkvn55Hldf3b3fbzDQOHvklheUHvF7sT5XOyKonEAxPMZhO5Km8OPQpENX3D
7yvipUjiy4TK6StATkOnI7anXBJrKmke+oAhaoc11zRVWTBaKozAlRzsOUM1p+sr
9qfVRw==
-----END CERTIFICATE-----
