Certificate:
    Data:
        Version: 3 (0x2)
        Serial Number: 4 (0x4)
    Signature Algorithm: sha1WithRSAEncryption
        Issuer: O=My Company, OU=My Unit, L=My Town, ST=My State, C=US, CN=Sample CA
        Validity
            Not Before: Jan 24 01:17:17 2017 GMT
            Not After : Jan 22 01:17:17 2027 GMT
        Subject: C=US, ST=My State, O=My Company, OU=quickstart-346960:server2, CN=localhost
        Subject Public Key Info:
            Public Key Algorithm: rsaEncryption
                Public-Key: (4096 bit)
                Modulus:
                    00:e5:b4:ae:58:5d:07:36:f1:f4:d2:0c:3a:25:1a:
                    e2:86:f0:a7:f6:a9:93:31:76:c3:56:27:d3:84:5e:
                    03:43:50:b3:c5:46:3b:52:27:1e:10:34:2d:3b:b7:
                    a0:77:c0:e5:0d:03:11:93:b0:b5:ba:b0:a7:b6:d1:
                    22:2e:86:b5:5d:43:65:6f:70:cc:7f:fe:65:2f:bc:
                    a8:af:39:b3:59:aa:b4:e7:10:0b:dc:09:f6:9d:38:
                    55:0f:d0:04:58:5f:c3:88:63:ef:4f:cd:a9:c6:1e:
                    29:97:52:b1:26:ee:1f:bd:d0:a2:c5:3d:e7:27:35:
                    14:e0:0c:a8:a8:fa:a9:41:7d:6b:46:e9:5a:54:1a:
                    0f:26:36:e9:4e:c7:45:40:46:d9:de:f6:01:94:9d:
                    c1:ba:d4:62:a4:97:a3:bb:c2:04:54:e8:84:bb:b8:
                    51:7d:a3:41:7e:9b:a2:25:c5:ee:a2:2d:44:7e:95:
                    65:f2:77:bc:2f:ff:5c:fd:0d:bd:2c:cd:2d:72:dd:
                    c4:e4:9e:da:e7:30:14:05:07:db:93:ba:e5:bb:2d:
                    86:1e:5d:5f:29:17:90:95:e9:73:7d:3b:8c:58:33:
                    2d:94:33:3b:0c:40:97:ec:d0:77:f2:49:ef:0b:60:
                    c7:af:28:ce:cb:d3:c4:2a:2e:3f:40:fc:18:99:b9:
                    c2:e3:21:6d:99:90:ad:ee:f9:dd:c9:83:ab:c1:eb:
                    c5:ac:88:c3:5b:ba:42:b8:2c:66:51:c7:d8:0b:0b:
                    3f:5f:75:8a:d9:54:20:76:ad:d9:70:cc:56:7d:c9:
                    ce:a8:08:23:8c:9d:7c:6f:bd:58:e9:fe:3e:be:ec:
                    64:00:43:e0:10:c8:fd:bd:2a:17:65:72:84:5c:f4:
                    db:5e:c3:8d:75:c2:a2:80:08:da:d7:f9:5a:78:a4:
                    ad:aa:05:5d:fe:31:88:cb:91:78:61:cf:e4:0d:70:
                    17:28:17:38:5f:24:a8:19:9b:7b:c4:35:a4:5b:47:
                    bd:be:09:6e:e5:a4:42:1b:8f:5d:6c:8b:e4:a2:39:
                    2c:02:10:99:59:40:65:7e:15:d6:68:10:1b:1f:ac:
                    f1:d1:8e:0f:f6:ca:c0:ca:42:38:4f:9e:7f:cd:8a:
                    15:30:0e:18:2d:00:db:0f:81:92:50:d9:a5:9e:5d:
                    b7:48:3c:3e:8e:c3:e3:f9:7b:87:2a:2f:35:c3:20:
                    a5:b9:bb:19:d9:78:c5:d6:20:11:18:ea:f6:64:a9:
                    5b:4e:3d:d0:4d:8e:09:5e:99:c7:69:6a:71:08:6c:
                    8b:50:06:87:32:db:4a:99:bc:a3:92:03:7a:7b:16:
                    05:d6:d3:c9:67:33:28:ed:61:45:2b:c3:0f:52:4f:
                    30:fe:79
                Exponent: 65537 (0x10001)
        X509v3 extensions:
            X509v3 Basic Constraints: 
                CA:FALSE
            X509v3 Subject Key Identifier: 
                D1:04:B5:4A:C9:2F:FC:36:DF:CC:BC:A1:31:9D:2D:95:D7:C5:AF:AA
            X509v3 Extended Key Usage: 
                TLS Web Server Authentication, TLS Web Client Authentication
    Signature Algorithm: sha1WithRSAEncryption
         04:af:7b:1a:12:17:c8:7f:13:ae:52:86:46:e1:fc:5b:16:10:
         44:8b:31:2d:03:0c:69:82:d2:89:6a:86:03:30:83:93:51:01:
         00:d3:9a:13:0a:42:cc:8e:6c:e7:a2:01:bc:3d:5b:42:50:3c:
         78:17:9d:32:cf:62:13:08:47:77:a5:4d:1e:3e:27:c6:09:82:
         d8:c7:d4:2e:31:fa:e8:3f:0e:46:16:78:97:3f:bb:b6:62:98:
         41:84:c3:27:89:3b:6a:9b:bd:f1:67:a3:14:76:76:7e:43:aa:
         d5:b5:5f:ae:24:57:17:27:21:01:c8:b1:1d:01:4c:f1:28:2a:
         eb:46:bc:e8:8a:16:eb:91:a7:9d:60:98:f1:fe:d4:d7:24:da:
         2e:d6:b9:fa:02:8d:5d:ef:e6:49:84:69:13:0b:1b:95:3f:3b:
         34:96:f2:e7:2a:a6:3c:e2:13:7d:dc:12:9c:1c:f6:3a:6d:ad:
         ff:6c:80:ac:a6:75:fc:e5:fe:2a:d6:fc:f3:23:f3:6b:1c:a3:
         dd:bc:7d:64:d0:9c:90:7d:a7:aa:13:80:99:fb:7b:ba:a6:22:
         9a:44:5a:ff:66:2b:f0:9f:91:8a:c7:cd:87:78:e3:6e:03:54:
         76:c1:94:c6:aa:34:be:33:76:75:9d:f3:0b:92:a3:e8:be:3e:
         9a:b0:ea:28:34:c6:9d:d2:00:ff:37:cc:30:1c:2d:59:b6:b5:
         53:5e:b3:26:25:87:37:99:be:76:77:89:5b:0a:6b:bb:02:d7:
         49:7d:65:f8:82:a4:93:8a:3b:63:87:09:20:59:f0:0a:6b:e7:
         fc:ca:d5:ac:e8:47:60:ac:3a:95:59:c3:c0:3f:ce:05:87:78:
         9d:e9:64:36:a3:4a:a2:87:bd:a5:e9:96:7e:bb:1a:9d:46:38:
         95:53:b1:40:81:ed:bc:4b:fe:e1:f5:c4:0c:eb:73:81:30:e3:
         44:43:27:1b:7f:fa:97:b4:3d:dc:cc:29:8a:e4:93:38:79:43:
         9c:cc:80:bb:fa:f0:c3:35:57:42:e9:9e:b3:b7:cf:45:4c:f3:
         84:31:84:2c:6a:a5:79:da:2f:8d:7a:a3:98:f9:38:71:7b:de:
         cb:54:ed:00:e2:a9:e1:11:c1:9b:a5:25:45:26:31:75:6d:57:
         40:5c:cf:58:c9:11:f4:20:ea:cf:77:cd:f9:e8:bb:88:86:05:
         5e:93:bd:6d:fc:e1:40:fb:65:76:84:a4:9a:ae:be:ad:8f:53:
         6b:59:c0:45:12:22:38:8f:f6:ec:4c:07:e3:ba:9d:a2:b4:cd:
         0f:d0:67:54:b2:72:44:94:28:c6:5a:43:9a:38:ff:93:25:d2:
         e0:25:b2:87:c9:95:f0:94
-----BEGIN CERTIFICATE-----
MIIFoDCCA4igAwIBAgIBBDANBgkqhkiG9w0BAQUFADBtMRMwEQYDVQQKEwpNeSBD
b21wYW55MRAwDgYDVQQLEwdNeSBVbml0MRAwDgYDVQQHEwdNeSBUb3duMREwDwYD
VQQIEwhNeSBTdGF0ZTELMAkGA1UEBhMCVVMxEjAQBgNVBAMTCVNhbXBsZSBDQTAe
Fw0xNzAxMjQwMTE3MTdaFw0yNzAxMjIwMTE3MTdaMG0xCzAJBgNVBAYTAlVTMREw
DwYDVQQIEwhNeSBTdGF0ZTETMBEGA1UEChMKTXkgQ29tcGFueTEiMCAGA1UECxMZ
cXVpY2tzdGFydC0zNDY5NjA6c2VydmVyMjESMBAGA1UEAxMJbG9jYWxob3N0MIIC
IjANBgkqhkiG9w0BAQEFAAOCAg8AMIICCgKCAgEA5bSuWF0HNvH00gw6JRrihvCn
9qmTMXbDVifThF4DQ1CzxUY7UiceEDQtO7egd8DlDQMRk7C1urCnttEiLoa1XUNl
b3DMf/5lL7yorzmzWaq05xAL3An2nThVD9AEWF/DiGPvT82pxh4pl1KxJu4fvdCi
xT3nJzUU4AyoqPqpQX1rRulaVBoPJjbpTsdFQEbZ3vYBlJ3ButRipJeju8IEVOiE
u7hRfaNBfpuiJcXuoi1EfpVl8ne8L/9c/Q29LM0tct3E5J7a5zAUBQfbk7rluy2G
Hl1fKReQlelzfTuMWDMtlDM7DECX7NB38knvC2DHryjOy9PEKi4/QPwYmbnC4yFt
mZCt7vndyYOrwevFrIjDW7pCuCxmUcfYCws/X3WK2VQgdq3ZcMxWfcnOqAgjjJ18
b71Y6f4+vuxkAEPgEMj9vSoXZXKEXPTbXsONdcKigAja1/laeKStqgVd/jGIy5F4
Yc/kDXAXKBc4XySoGZt7xDWkW0e9vglu5aRCG49dbIvkojksAhCZWUBlfhXWaBAb
H6zx0Y4P9srAykI4T55/zYoVMA4YLQDbD4GSUNmlnl23SDw+jsPj+XuHKi81wyCl
ubsZ2XjF1iARGOr2ZKlbTj3QTY4JXpnHaWpxCGyLUAaHMttKmbyjkgN6exYF1tPJ
ZzMo7WFFK8MPUk8w/nkCAwEAAaNLMEkwCQYDVR0TBAIwADAdBgNVHQ4EFgQU0QS1
Sskv/DbfzLyhMZ0tldfFr6owHQYDVR0lBBYwFAYIKwYBBQUHAwEGCCsGAQUFBwMC
MA0GCSqGSIb3DQEBBQUAA4ICAQAEr3saEhfIfxOuUoZG4fxbFhBEizEtAwxpgtKJ
aoYDMIOTUQEA05oTCkLMjmznogG8PVtCUDx4F50yz2ITCEd3pU0ePifGCYLYx9Qu
MfroPw5GFniXP7u2YphBhMMniTtqm73xZ6MUdnZ+Q6rVtV+uJFcXJyEByLEdAUzx
KCrrRrzoihbrkaedYJjx/tTXJNou1rn6Ao1d7+ZJhGkTCxuVPzs0lvLnKqY84hN9
3BKcHPY6ba3/bICspnX85f4q1vzzI/NrHKPdvH1k0JyQfaeqE4CZ+3u6piKaRFr/
Zivwn5GKx82HeONuA1R2wZTGqjS+M3Z1nfMLkqPovj6asOooNMad0gD/N8wwHC1Z
trVTXrMmJYc3mb52d4lbCmu7AtdJfWX4gqSTijtjhwkgWfAKa+f8ytWs6EdgrDqV
WcPAP84Fh3id6WQ2o0qih72l6ZZ+uxqdRjiVU7FAge28S/7h9cQM63OBMONEQycb
f/qXtD3czCmK5JM4eUOczIC7+vDDNVdC6Z6zt89FTPOEMYQsaqV52i+NeqOY+Thx
e97LVO0A4qnhEcGbpSVFJjF1bVdAXM9YyRH0IOrPd8356LuIhgVek71t/OFA+2V2
hKSarr6tj1NrWcBFEiI4j/bsTAfjup2itM0P0GdUsnJElCjGWkOaOP+TJdLgJbKH
yZXwlA==
-----END CERTIFICATE-----
