Certificate:
    Data:
        Version: 3 (0x2)
        Serial Number: 2 (0x2)
    Signature Algorithm: sha1WithRSAEncryption
        Issuer: O=My Company, OU=My Unit, L=My Town, ST=My State, C=US, CN=Sample CA
        Validity
            Not Before: Jan 24 01:17:16 2017 GMT
            Not After : Jan 22 01:17:16 2027 GMT
        Subject: C=US, ST=My State, O=My Company, OU=web-admin, CN=localhost
        Subject Public Key Info:
            Public Key Algorithm: rsaEncryption
                Public-Key: (4096 bit)
                Modulus:
                    00:b2:55:e4:0a:81:27:ba:10:1b:fd:46:4a:03:6f:
                    20:77:9e:f0:76:86:18:d5:84:8d:70:3f:e4:e7:67:
                    5b:a3:52:82:d7:28:ae:c2:7b:09:51:63:a7:6a:e0:
                    6e:fa:b6:e3:8b:98:d1:4a:41:de:1c:b5:cf:63:4e:
                    cc:6a:20:35:07:73:fc:15:eb:cd:d7:27:11:ee:b8:
                    00:06:03:a5:5a:2a:91:45:69:0e:55:88:07:e2:83:
                    6e:cc:5e:5c:7b:1c:51:84:e1:1b:c9:05:84:46:e6:
                    55:b8:9e:a2:27:3b:7c:72:6f:a2:cd:71:87:d3:a6:
                    b4:b1:3c:18:93:a5:0f:ba:d2:78:26:12:d9:16:6c:
                    61:74:3a:46:87:ae:e7:d9:56:5c:ed:16:0e:3c:d9:
                    32:72:db:9a:9c:55:7f:3f:17:ae:05:8c:32:17:8e:
                    49:14:26:67:24:01:06:d7:07:6b:e7:73:99:62:3a:
                    22:cc:2a:75:1e:c0:d8:82:bf:4c:84:a5:00:df:02:
                    60:0b:d7:23:5f:13:4f:af:8b:c5:0d:47:de:49:40:
                    24:b5:68:84:65:e9:9d:1b:cc:15:36:ee:bd:d2:53:
                    e4:a2:22:bf:58:fb:25:7d:8b:d4:2d:06:86:b2:3b:
                    5a:68:00:c7:64:9e:46:b5:71:cb:d2:c9:76:f1:3f:
                    59:7e:28:d7:2a:45:11:7b:65:f5:85:47:df:16:b8:
                    fe:69:d7:c0:3a:62:6c:48:5a:c3:a3:b4:91:ea:c0:
                    81:c4:33:e2:0d:47:e8:25:c5:7b:aa:49:cb:9c:11:
                    e3:5c:7a:dd:ed:eb:c0:21:f8:41:69:f9:9d:1a:27:
                    19:e6:7c:80:1f:b5:3e:a0:72:07:dc:41:50:cb:d6:
                    c1:9e:be:30:2a:f2:b0:7f:03:8e:20:6a:ba:6b:6d:
                    31:b9:b4:4d:ef:10:ce:d5:76:fd:56:1e:ed:1b:1b:
                    92:95:19:4e:67:47:51:b7:81:c7:a8:59:5b:e1:fb:
                    00:ed:b0:d5:b3:49:7e:89:9d:13:c8:2e:19:16:5c:
                    15:da:cd:61:23:b6:a0:c5:fa:45:9f:ce:52:2c:ee:
                    cf:cb:c4:39:3c:10:d1:b6:29:68:c0:71:2b:f1:bd:
                    ab:b1:39:1b:bc:05:e9:32:91:c2:75:92:66:88:0d:
                    cb:b9:49:8a:5f:6a:02:07:c2:2d:8d:12:f9:1d:b4:
                    56:5f:51:30:69:4c:7f:20:08:8e:2d:85:f0:66:e9:
                    4e:77:da:a8:84:ec:6f:93:0c:60:b8:cc:47:a3:a6:
                    5f:ef:b7:b7:ae:50:e9:68:80:bd:82:6f:84:db:1f:
                    13:39:2b:a6:97:0a:a7:b7:bf:25:74:da:02:54:8e:
                    e7:e6:0d
                Exponent: 65537 (0x10001)
        X509v3 extensions:
            X509v3 Basic Constraints: 
                CA:FALSE
            X509v3 Subject Key Identifier: 
                16:87:C4:48:0D:49:5A:BF:D9:DA:F0:13:4F:7A:6A:0E:A2:BB:D1:3D
            X509v3 Extended Key Usage: 
                TLS Web Server Authentication, TLS Web Client Authentication
    Signature Algorithm: sha1WithRSAEncryption
         a6:ee:3f:03:08:1b:db:de:2b:54:68:49:c3:91:f3:28:a1:99:
         5c:9c:0e:35:1b:36:94:2c:9b:eb:fa:d1:ff:fb:b1:24:5d:aa:
         a1:b1:ae:da:74:70:23:23:76:33:86:e6:e6:97:82:ed:19:dc:
         e4:d0:f3:5a:0b:bc:4d:2d:c7:5a:23:f6:08:98:f3:29:0f:68:
         cb:65:01:d3:10:33:79:0a:b2:6a:59:65:d8:33:8d:38:c0:d1:
         09:97:7f:07:04:9b:16:15:6b:c0:80:28:1f:2e:cd:d8:c3:8e:
         1f:52:df:93:94:a6:7f:0e:9c:e5:4a:95:c6:47:1b:3d:dd:20:
         bd:eb:24:93:12:fd:44:1d:31:f5:5b:31:5e:60:83:06:2d:49:
         fa:ea:30:81:18:80:10:50:1c:f3:ee:17:f8:9b:38:2e:35:3c:
         00:87:a7:f6:0d:8e:dc:f5:bf:48:c2:fc:4b:40:31:cd:68:55:
         30:80:5f:38:70:55:56:4f:32:ac:96:00:23:2b:2d:fb:e4:bd:
         f1:67:09:37:76:fb:18:12:fb:fb:0c:0d:d1:a3:22:75:fc:e6:
         91:06:e8:97:94:09:61:e1:2c:d1:57:93:9e:c3:30:ab:f8:9b:
         c1:ec:bc:cc:37:7c:e6:bb:a2:1b:73:0c:f9:26:b8:60:6f:a9:
         15:87:49:22:bf:e7:df:43:98:1a:1a:40:bd:6c:1d:bf:78:39:
         1b:84:09:5a:07:7f:49:74:34:67:76:c9:ca:92:1b:17:b7:3f:
         f0:98:29:01:f6:e3:a0:dc:17:d6:81:82:95:28:e2:d8:be:67:
         3a:5c:8e:f8:6f:d1:d6:00:97:0e:11:d7:da:80:83:12:18:d6:
         04:8a:b9:c9:b3:ea:34:88:44:ac:fc:54:ed:4c:a9:28:b5:9c:
         19:46:a7:a0:dc:22:a8:de:8d:f8:26:b0:b4:bf:0a:75:23:07:
         d0:71:ff:b8:a0:0c:d5:bd:ef:3d:fc:54:b6:4d:3b:c8:29:cd:
         d0:24:3c:d0:d8:29:bd:48:db:64:2c:2d:50:0d:16:cd:65:af:
         db:05:d6:8e:7a:66:ce:fd:54:53:b2:10:27:a0:33:85:f0:d1:
         b3:4f:9a:ed:4d:d1:76:61:3a:2f:5a:8b:7f:33:1a:74:e0:9d:
         37:68:cb:fd:64:ce:c6:8f:d7:d5:ba:bd:58:62:e1:31:c2:61:
         80:6b:ce:52:a4:4c:7c:23:5c:14:55:12:6d:64:e9:73:c4:48:
         5f:99:85:41:9d:2b:4c:4a:87:e0:77:1b:85:64:41:2f:36:cb:
         ec:4a:5d:68:d9:ad:ab:72:7a:8e:0a:57:46:1b:8a:2a:55:04:
         ec:ed:d3:5f:c8:3a:9c:79
-----BEGIN CERTIFICATE-----
MIIFkDCCA3igAwIBAgIBAjANBgkqhkiG9w0BAQUFADBtMRMwEQYDVQQKEwpNeSBD
b21wYW55MRAwDgYDVQQLEwdNeSBVbml0MRAwDgYDVQQHEwdNeSBUb3duMREwDwYD
VQQIEwhNeSBTdGF0ZTELMAkGA1UEBhMCVVMxEjAQBgNVBAMTCVNhbXBsZSBDQTAe
Fw0xNzAxMjQwMTE3MTZaFw0yNzAxMjIwMTE3MTZaMF0xCzAJBgNVBAYTAlVTMREw
DwYDVQQIEwhNeSBTdGF0ZTETMBEGA1UEChMKTXkgQ29tcGFueTESMBAGA1UECxMJ
d2ViLWFkbWluMRIwEAYDVQQDEwlsb2NhbGhvc3QwggIiMA0GCSqGSIb3DQEBAQUA
A4ICDwAwggIKAoICAQCyVeQKgSe6EBv9RkoDbyB3nvB2hhjVhI1wP+TnZ1ujUoLX
KK7CewlRY6dq4G76tuOLmNFKQd4ctc9jTsxqIDUHc/wV683XJxHuuAAGA6VaKpFF
aQ5ViAfig27MXlx7HFGE4RvJBYRG5lW4nqInO3xyb6LNcYfTprSxPBiTpQ+60ngm
EtkWbGF0OkaHrufZVlztFg482TJy25qcVX8/F64FjDIXjkkUJmckAQbXB2vnc5li
OiLMKnUewNiCv0yEpQDfAmAL1yNfE0+vi8UNR95JQCS1aIRl6Z0bzBU27r3SU+Si
Ir9Y+yV9i9QtBoayO1poAMdknka1ccvSyXbxP1l+KNcqRRF7ZfWFR98WuP5p18A6
YmxIWsOjtJHqwIHEM+INR+glxXuqScucEeNcet3t68Ah+EFp+Z0aJxnmfIAftT6g
cgfcQVDL1sGevjAq8rB/A44garprbTG5tE3vEM7Vdv1WHu0bG5KVGU5nR1G3gceo
WVvh+wDtsNWzSX6JnRPILhkWXBXazWEjtqDF+kWfzlIs7s/LxDk8ENG2KWjAcSvx
vauxORu8BekykcJ1kmaIDcu5SYpfagIHwi2NEvkdtFZfUTBpTH8gCI4thfBm6U53
2qiE7G+TDGC4zEejpl/vt7euUOlogL2Cb4TbHxM5K6aXCqe3vyV02gJUjufmDQID
AQABo0swSTAJBgNVHRMEAjAAMB0GA1UdDgQWBBQWh8RIDUlav9na8BNPemoOorvR
PTAdBgNVHSUEFjAUBggrBgEFBQcDAQYIKwYBBQUHAwIwDQYJKoZIhvcNAQEFBQAD
ggIBAKbuPwMIG9veK1RoScOR8yihmVycDjUbNpQsm+v60f/7sSRdqqGxrtp0cCMj
djOG5uaXgu0Z3OTQ81oLvE0tx1oj9giY8ykPaMtlAdMQM3kKsmpZZdgzjTjA0QmX
fwcEmxYVa8CAKB8uzdjDjh9S35OUpn8OnOVKlcZHGz3dIL3rJJMS/UQdMfVbMV5g
gwYtSfrqMIEYgBBQHPPuF/ibOC41PACHp/YNjtz1v0jC/EtAMc1oVTCAXzhwVVZP
MqyWACMrLfvkvfFnCTd2+xgS+/sMDdGjInX85pEG6JeUCWHhLNFXk57DMKv4m8Hs
vMw3fOa7ohtzDPkmuGBvqRWHSSK/599DmBoaQL1sHb94ORuECVoHf0l0NGd2ycqS
Gxe3P/CYKQH246DcF9aBgpUo4ti+Zzpcjvhv0dYAlw4R19qAgxIY1gSKucmz6jSI
RKz8VO1MqSi1nBlGp6DcIqjejfgmsLS/CnUjB9Bx/7igDNW97z38VLZNO8gpzdAk
PNDYKb1I22QsLVANFs1lr9sF1o56Zs79VFOyECegM4Xw0bNPmu1N0XZhOi9ai38z
GnTgnTdoy/1kzsaP19W6vVhi4THCYYBrzlKkTHwjXBRVEm1k6XPESF+ZhUGdK0xK
h+B3G4VkQS82y+xKXWjZratyeo4KV0YbiipVBOzt01/IOpx5
-----END CERTIFICATE-----
