Certificate:
    Data:
        Version: 3 (0x2)
        Serial Number: 1 (0x1)
    Signature Algorithm: sha1WithRSAEncryption
        Issuer: O=My Company, OU=My Unit, L=My Town, ST=My State, C=US, CN=Sample CA
        Validity
            Not Before: Jan 24 01:17:15 2017 GMT
            Not After : Jan 22 01:17:15 2027 GMT
        Subject: C=US, ST=My State, O=My Company, OU=zato-lb-agent, CN=localhost
        Subject Public Key Info:
            Public Key Algorithm: rsaEncryption
                Public-Key: (4096 bit)
                Modulus:
                    00:a3:5c:fa:75:c0:6a:67:a9:32:42:f2:9b:3c:6c:
                    7b:f3:5b:c8:fa:80:73:20:0b:c0:3c:dc:b8:7a:64:
                    30:26:81:69:1d:44:fe:96:ab:82:4e:8e:ed:4e:f4:
                    be:84:7d:17:5d:83:21:24:cf:2f:0f:dc:b5:8a:83:
                    35:55:60:03:da:5b:69:c9:b7:f6:fb:3d:a4:14:8e:
                    4a:bf:8d:1a:9f:68:d0:56:0b:f9:12:24:38:16:72:
                    84:f5:5a:30:74:20:3d:e8:06:b7:43:85:ff:65:1f:
                    73:99:8f:b7:4c:72:d3:01:54:4d:76:d1:17:bc:34:
                    13:cb:5e:dc:94:53:d5:7d:c0:b9:d1:14:97:e4:9e:
                    35:9b:a1:cf:ca:d5:a5:43:c1:5e:31:43:a4:09:b4:
                    b9:8c:ea:63:de:d8:93:31:6a:ec:67:56:00:50:12:
                    1e:01:61:50:1c:7c:f2:73:f4:e4:15:ed:9a:cc:50:
                    48:52:47:f4:f4:40:d3:c6:97:61:5a:67:7b:2c:5b:
                    db:c9:74:e2:c7:fc:c7:2b:ca:d0:46:bc:a4:bb:5d:
                    54:53:0b:31:45:52:9e:d0:c5:aa:35:d8:28:18:48:
                    67:fc:31:26:20:d6:ff:ae:a5:5b:55:78:d4:34:1b:
                    c0:72:40:e3:9e:4f:84:0e:38:a6:68:10:d7:69:04:
                    48:ea:69:93:66:6e:7e:a6:a7:18:17:0d:60:51:6a:
                    f1:13:e5:4f:d6:ba:cc:9d:5f:41:2f:bd:e8:61:ef:
                    61:cf:ee:2c:68:7d:a3:e3:ea:14:e5:64:b4:80:70:
                    b9:93:31:3d:e0:a9:74:50:02:8e:3a:2b:ef:9e:85:
                    fe:0a:db:fb:2e:46:54:b6:6b:df:00:59:17:65:54:
                    bb:47:19:7d:00:ec:d2:7e:3a:df:42:ee:2e:60:46:
                    82:8a:4c:10:10:87:61:e5:01:42:ea:15:c7:1e:fc:
                    96:68:8b:f0:c7:83:2a:0a:de:75:28:02:10:65:c9:
                    95:af:76:0f:51:ff:bf:94:90:05:53:2f:cd:9b:0a:
                    2c:92:cf:75:2d:15:d4:11:cf:f4:72:68:5d:c6:47:
                    81:92:8f:dc:a2:73:08:c5:24:f4:2c:ed:d6:8c:7d:
                    be:69:37:82:39:22:bb:ba:49:ff:5c:50:de:9f:55:
                    0d:ba:29:af:9f:0d:fb:cf:8f:57:7f:76:e6:66:27:
                    95:94:97:ae:09:1f:2a:b8:22:ea:0b:3d:85:03:58:
                    c5:97:cf:57:c7:df:a0:66:7f:90:69:3a:6d:20:0b:
                    04:9c:36:0d:04:1b:25:cd:18:7e:10:63:87:63:65:
                    a1:ec:2c:4f:22:92:a5:24:c0:35:0b:6e:43:9f:3d:
                    7f:56:e3
                Exponent: 65537 (0x10001)
        X509v3 extensions:
            X509v3 Basic Constraints: 
                CA:FALSE
            X509v3 Subject Key Identifier: 
                F6:9A:5A:3A:40:BC:D5:A5:1A:5C:89:3D:AF:5F:8D:F7:B7:CA:4C:AD
            X509v3 Extended Key Usage: 
                TLS Web Server Authentication
    Signature Algorithm: sha1WithRSAEncryption
         19:08:63:67:53:ce:13:b2:49:3d:8a:e6:c7:c7:c3:03:23:c2:
         ed:4a:1a:8b:1f:90:7a:0c:36:ae:f9:7d:b0:b4:39:de:40:4a:
         8d:93:24:c3:d0:09:01:ae:e7:59:9d:8f:ab:99:b4:5e:ab:c2:
         e4:19:a6:64:64:55:76:f1:d3:f6:09:ca:a6:5e:fb:61:b7:95:
         28:bb:e5:fd:0e:eb:ea:cc:70:75:20:7c:aa:7a:b2:5c:01:d9:
         c1:69:98:f3:b7:ea:58:f7:6b:24:af:1b:a6:70:21:69:8e:48:
         a5:d7:53:30:79:5d:c0:fc:dd:2b:c7:37:d5:86:68:c5:58:c7:
         8f:ad:62:4b:07:bd:f3:bb:79:2c:54:1b:04:1a:16:5e:3f:1c:
         b4:32:be:d1:2e:94:77:46:8f:f4:6d:c8:a5:13:dc:27:15:84:
         b2:84:3c:67:19:73:b0:53:5b:0c:b8:d8:ef:50:5b:07:23:60:
         55:88:e1:b7:7a:9f:08:60:8c:6d:8a:56:ca:7d:f0:de:12:73:
         8e:30:54:30:bc:8f:f7:7f:72:c7:c4:a9:7e:04:87:8a:71:5b:
         c9:3f:11:dc:5a:69:69:a7:bf:a9:86:a2:d1:ea:2f:09:97:e8:
         3d:39:bb:97:19:d5:cc:67:1d:74:c5:bc:19:7c:ed:66:fd:f1:
         05:48:0e:18:45:83:bc:40:ff:67:bd:d4:a3:42:dd:c7:e1:6c:
         69:35:fa:53:e6:99:33:b9:eb:1e:7b:41:05:2e:0e:0f:15:2d:
         95:88:4f:fd:57:c8:c6:c7:8c:61:3b:b0:c3:20:f4:14:81:b9:
         bc:d9:6f:99:88:1c:c0:a9:be:96:ff:12:2a:f0:2a:19:da:e0:
         82:c1:d8:d1:14:8d:d4:2b:fd:b3:13:a3:24:a7:c5:6e:9c:35:
         88:df:a8:8b:45:4f:94:5f:fc:86:15:a7:a2:5e:01:19:a3:96:
         c9:f4:dd:0a:8c:5f:01:db:f1:7a:ce:79:ed:56:35:c9:a3:2d:
         10:30:0d:10:0e:ea:3e:16:4f:90:19:89:c6:83:27:9c:f8:e5:
         15:5d:f5:0e:f1:d2:f4:03:0a:7d:47:76:8c:a9:1f:ca:ae:b7:
         d5:6d:eb:86:84:1f:90:f6:49:94:d8:15:6c:64:da:a9:b1:a3:
         52:f7:ff:cf:6a:3a:9c:aa:84:bc:93:de:2f:76:0e:75:e4:e9:
         07:f5:3f:7c:89:ec:c1:38:46:10:b7:1f:f9:89:17:aa:22:14:
         74:b1:c8:ac:bb:8a:94:a7:2a:4e:09:da:32:9b:d4:13:6d:d8:
         e1:b5:ad:89:9c:d4:19:9d:62:36:40:37:00:7b:a3:27:e2:a5:
         15:a6:fd:d2:59:1b:be:8a
-----BEGIN CERTIFICATE-----
MIIFijCCA3KgAwIBAgIBATANBgkqhkiG9w0BAQUFADBtMRMwEQYDVQQKEwpNeSBD
b21wYW55MRAwDgYDVQQLEwdNeSBVbml0MRAwDgYDVQQHEwdNeSBUb3duMREwDwYD
VQQIEwhNeSBTdGF0ZTELMAkGA1UEBhMCVVMxEjAQBgNVBAMTCVNhbXBsZSBDQTAe
Fw0xNzAxMjQwMTE3MTVaFw0yNzAxMjIwMTE3MTVaMGExCzAJBgNVBAYTAlVTMREw
DwYDVQQIEwhNeSBTdGF0ZTETMBEGA1UEChMKTXkgQ29tcGFueTEWMBQGA1UECxMN
emF0by1sYi1hZ2VudDESMBAGA1UEAxMJbG9jYWxob3N0MIICIjANBgkqhkiG9w0B
AQEFAAOCAg8AMIICCgKCAgEAo1z6dcBqZ6kyQvKbPGx781vI+oBzIAvAPNy4emQw
JoFpHUT+lquCTo7tTvS+hH0XXYMhJM8vD9y1ioM1VWAD2ltpybf2+z2kFI5Kv40a
n2jQVgv5EiQ4FnKE9VowdCA96Aa3Q4X/ZR9zmY+3THLTAVRNdtEXvDQTy17clFPV
fcC50RSX5J41m6HPytWlQ8FeMUOkCbS5jOpj3tiTMWrsZ1YAUBIeAWFQHHzyc/Tk
Fe2azFBIUkf09EDTxpdhWmd7LFvbyXTix/zHK8rQRryku11UUwsxRVKe0MWqNdgo
GEhn/DEmINb/rqVbVXjUNBvAckDjnk+EDjimaBDXaQRI6mmTZm5+pqcYFw1gUWrx
E+VP1rrMnV9BL73oYe9hz+4saH2j4+oU5WS0gHC5kzE94Kl0UAKOOivvnoX+Ctv7
LkZUtmvfAFkXZVS7Rxl9AOzSfjrfQu4uYEaCikwQEIdh5QFC6hXHHvyWaIvwx4Mq
Ct51KAIQZcmVr3YPUf+/lJAFUy/Nmwosks91LRXUEc/0cmhdxkeBko/conMIxST0
LO3WjH2+aTeCOSK7ukn/XFDen1UNuimvnw37z49Xf3bmZieVlJeuCR8quCLqCz2F
A1jFl89Xx9+gZn+QaTptIAsEnDYNBBslzRh+EGOHY2Wh7CxPIpKlJMA1C25Dnz1/
VuMCAwEAAaNBMD8wCQYDVR0TBAIwADAdBgNVHQ4EFgQU9ppaOkC81aUaXIk9r1+N
97fKTK0wEwYDVR0lBAwwCgYIKwYBBQUHAwEwDQYJKoZIhvcNAQEFBQADggIBABkI
Y2dTzhOyST2K5sfHwwMjwu1KGosfkHoMNq75fbC0Od5ASo2TJMPQCQGu51mdj6uZ
tF6rwuQZpmRkVXbx0/YJyqZe+2G3lSi75f0O6+rMcHUgfKp6slwB2cFpmPO36lj3
aySvG6ZwIWmOSKXXUzB5XcD83SvHN9WGaMVYx4+tYksHvfO7eSxUGwQaFl4/HLQy
vtEulHdGj/RtyKUT3CcVhLKEPGcZc7BTWwy42O9QWwcjYFWI4bd6nwhgjG2KVsp9
8N4Sc44wVDC8j/d/csfEqX4Eh4pxW8k/EdxaaWmnv6mGotHqLwmX6D05u5cZ1cxn
HXTFvBl87Wb98QVIDhhFg7xA/2e91KNC3cfhbGk1+lPmmTO56x57QQUuDg8VLZWI
T/1XyMbHjGE7sMMg9BSBubzZb5mIHMCpvpb/EirwKhna4ILB2NEUjdQr/bMToySn
xW6cNYjfqItFT5Rf/IYVp6JeARmjlsn03QqMXwHb8XrOee1WNcmjLRAwDRAO6j4W
T5AZicaDJ5z45RVd9Q7x0vQDCn1HdoypH8qut9Vt64aEH5D2SZTYFWxk2qmxo1L3
/89qOpyqhLyT3i92DnXk6Qf1P3yJ7ME4RhC3H/mJF6oiFHSxyKy7ipSnKk4J2jKb
1BNt2OG1rYmc1BmdYjZANwB7oyfipRWm/dJZG76K
-----END CERTIFICATE-----
